target datalayout = "e-m:e-p270:32:32-p271:32:32-p272:64:64-i64:64-i128:128-f80:128-n8:16:32:64-S128"
target triple = "x86_64-pc-linux-gnu"

@_ZN6icu_7713ICUServiceKeyC1ERKNS_13UnicodeStringE = unnamed_addr alias void (ptr, ptr), ptr @_ZN6icu_7713ICUServiceKeyC2ERKNS_13UnicodeStringE

; Function Attrs: inlinehint mustprogress nounwind uwtable
define internal noundef signext i8 @_ZL9U_FAILURE10UErrorCode(i32 noundef %0) #1 {
  %2 = alloca i32, align 4
  store i32 %0, ptr %2, align 4, !tbaa !33
  %3 = load i32, ptr %2, align 4, !tbaa !33
  %4 = icmp sgt i32 %3, 0
  %5 = zext i1 %4 to i8
  ret i8 %5
}

; Function Attrs: mustprogress uwtable
define noundef ptr @_ZNK6icu_7710ICUService9createKeyEPKNS_13UnicodeStringER10UErrorCode(ptr noundef nonnull align 8 dereferenceable(120) %0, ptr noundef %1, ptr noundef nonnull align 4 dereferenceable(4) %2) unnamed_addr #0 align 2 personality ptr @__gxx_personality_v0 {
  %4 = alloca ptr, align 8
  %5 = alloca ptr, align 8
  %6 = alloca ptr, align 8
  %7 = alloca ptr, align 8
  %8 = alloca i1, align 1
  %9 = alloca ptr, align 8
  %10 = alloca i32, align 4
  store ptr %0, ptr %4, align 8, !tbaa !30
  store ptr %1, ptr %5, align 8, !tbaa !8
  store ptr %2, ptr %6, align 8, !tbaa !32
  %11 = load ptr, ptr %6, align 8, !tbaa !32
  %12 = load i32, ptr %11, align 4, !tbaa !33
  %13 = call noundef signext i8 @_ZL9U_FAILURE10UErrorCode(i32 noundef %12)
  %14 = icmp ne i8 %13, 0
  store i1 false, ptr %8, align 1
  br i1 %14, label %18, label %15

15:                                               ; preds = %3
  %16 = load ptr, ptr %5, align 8, !tbaa !8
  %17 = icmp eq ptr %16, null
  br i1 %17, label %18, label %19

18:                                               ; preds = %15, %3
  br label %27

19:                                               ; preds = %15
  %20 = call noundef ptr @_ZN6icu_777UMemorynwEm(i64 noundef 72) #10
  %21 = icmp eq ptr %20, null
  br i1 %21, label %25, label %22

22:                                               ; preds = %19
  store ptr %20, ptr %7, align 8
  store i1 true, ptr %8, align 1
  %23 = load ptr, ptr %5, align 8, !tbaa !8
  invoke void @_ZN6icu_7713ICUServiceKeyC1ERKNS_13UnicodeStringE(ptr noundef nonnull align 8 dereferenceable(72) %20, ptr noundef nonnull align 8 dereferenceable(64) %23)
          to label %24 unwind label %29

24:                                               ; preds = %22
  br label %25

25:                                               ; preds = %24, %19
  %26 = phi ptr [ %20, %24 ], [ null, %19 ]
  br label %27

27:                                               ; preds = %25, %18
  %28 = phi ptr [ null, %18 ], [ %26, %25 ]
  ret ptr %28

29:                                               ; preds = %22
  %30 = landingpad { ptr, i32 }
          cleanup
  %31 = extractvalue { ptr, i32 } %30, 0
  store ptr %31, ptr %9, align 8
  %32 = extractvalue { ptr, i32 } %30, 1
  store i32 %32, ptr %10, align 4
  %33 = load i1, ptr %8, align 1
  br i1 %33, label %34, label %36

34:                                               ; preds = %29
  %35 = load ptr, ptr %7, align 8
  call void @_ZN6icu_777UMemorydlEPv(ptr noundef %35) #10
  br label %36

36:                                               ; preds = %34, %29
  br label %37

37:                                               ; preds = %36
  %38 = load ptr, ptr %9, align 8
  %39 = load i32, ptr %10, align 4
  %40 = insertvalue { ptr, i32 } poison, ptr %38, 0
  %41 = insertvalue { ptr, i32 } %40, i32 %39, 1
  resume { ptr, i32 } %41
}