; Function Attrs: mustprogress uwtable
define noundef ptr @_ZNK6icu_7710ICUService9createKeyEPKNS_13UnicodeStringER10UErrorCode(ptr nonnull readnone align 8 captures(none) %0, ptr noundef %1, ptr noundef nonnull readonly align 4 captures(none) dereferenceable(4) %2) unnamed_addr #0 align 2 personality ptr @__gxx_personality_v0 {
  %4 = load i32, ptr %2, align 4, !tbaa !19
  %5 = icmp sgt i32 %4, 0
  %6 = icmp eq ptr %1, null
  %or.cond = or i1 %6, %5
  br i1 %or.cond, label %11, label %7

7:                                                ; preds = %3
  %8 = tail call noundef ptr @_ZN6icu_777UMemorynwEm(i64 noundef 72) #17
  %9 = icmp eq ptr %8, null
  br i1 %9, label %11, label %10

10:                                               ; preds = %7
  invoke void @_ZN6icu_7713ICUServiceKeyC1ERKNS_13UnicodeStringE(ptr noundef nonnull align 8 dereferenceable(72) %8, ptr noundef nonnull align 8 dereferenceable(64) %1)
          to label %11 unwind label %13

11:                                               ; preds = %7, %10, %3
  %12 = phi ptr [ null, %3 ], [ null, %7 ], [ %8, %10 ]
  ret ptr %12

13:                                               ; preds = %10
  %14 = landingpad { ptr, i32 }
          cleanup
  tail call void @_ZN6icu_777UMemorydlEPv(ptr noundef nonnull %8) #17
  resume { ptr, i32 } %14
}